target datalayout = "e-m:e-p270:32:32-p271:32:32-p272:64:64-i64:64-i128:128-f80:128-n8:16:32:64-S128"
target triple = "x86_64-pc-linux-gnu"

@ePKeyError = global i64 0, align 8
@.str.3 = private unnamed_addr constant [19 x i8] c"parameters missing\00", align 1

; Function Attrs: nounwind sspstrong uwtable
define void @ossl_pkey_check_public_key(ptr noundef %0) #0 {
  %2 = alloca ptr, align 8
  store ptr %0, ptr %2, align 8, !tbaa !10
  %3 = load ptr, ptr %2, align 8, !tbaa !10
  %4 = call i32 @EVP_PKEY_missing_parameters(ptr noundef %3)
  %5 = icmp ne i32 %4, 0
  br i1 %5, label %6, label %8

6:                                                ; preds = %1
  %7 = load i64, ptr @ePKeyError, align 8, !tbaa !12
  call void (i64, ptr, ...) @ossl_raise(i64 noundef %7, ptr noundef @.str.3) #20
  unreachable

8:                                                ; preds = %1
  ret void
}