; Function Attrs: nounwind sspstrong uwtable
define void @ossl_pkey_check_public_key(ptr noundef %0) local_unnamed_addr #0 {
  %2 = tail call i32 @EVP_PKEY_missing_parameters(ptr noundef %0) #8
  %.not = icmp eq i32 %2, 0
  br i1 %.not, label %5, label %3

3:                                                ; preds = %1
  %4 = load i64, ptr @ePKeyError, align 8, !tbaa !10
  tail call void (i64, ptr, ...) @ossl_raise(i64 noundef %4, ptr noundef nonnull @.str.3) #9
  unreachable

5:                                                ; preds = %1
  ret void
}